(dp0
S'db_data'
p1
(dp2
S'rname'
p3
S'"db_data"'
p4
sS'sortable'
p5
I2
sS'raw_rname'
p6
S'db_data'
p7
sS'notnull'
p8
I00
sS'length'
p9
I32768
sS'sql'
p10
S'TEXT'
p11
sS'unique'
p12
I00
sS'type'
p13
S'text'
p14
ssS'userid'
p15
(dp16
g3
S'"userID"'
p17
sg5
I3
sg6
S'userID'
p18
sg8
I00
sg9
I512
sg10
S'CHAR(512)'
p19
sg12
I00
sg13
S'string'
p20
ssS'id'
p21
(dp22
g3
S'"id"'
p23
sg5
I1
sg6
S'id'
p24
sg8
I00
sg9
I512
sg10
S'INTEGER PRIMARY KEY AUTOINCREMENT'
p25
sg12
I00
sg13
g24
ss.